; Function Attrs: mustprogress nounwind uwtable
define hidden noundef zeroext i1 @_ZN21java_lang_ClassLoader11is_instanceEP7oopDesc(ptr noundef readonly %0) local_unnamed_addr #0 align 2 {
  %.not = icmp eq ptr %0, null
  br i1 %.not, label %20, label %2

2:                                                ; preds = %1
  %3 = load i8, ptr @UseCompressedClassPointers, align 1
  %4 = trunc i8 %3 to i1
  %5 = getelementptr inbounds i8, ptr %0, i64 8
  br i1 %4, label %6, label %16

6:                                                ; preds = %2
  %7 = load i32, ptr %5, align 8
  %8 = load ptr, ptr @_ZN23CompressedKlassPointers5_baseE, align 8
  %9 = load i32, ptr @_ZN23CompressedKlassPointers6_shiftE, align 4
  %10 = ptrtoint ptr %8 to i64
  %11 = zext i32 %7 to i64
  %12 = zext nneg i32 %9 to i64
  %13 = shl i64 %11, %12
  %14 = add i64 %13, %10
  %15 = inttoptr i64 %14 to ptr
  br label %_ZNK7oopDesc5klassEv.exit

16:                                               ; preds = %2
  %17 = load ptr, ptr %5, align 8
  br label %_ZNK7oopDesc5klassEv.exit

_ZNK7oopDesc5klassEv.exit:                        ; preds = %6, %16
  %.0.i = phi ptr [ %15, %6 ], [ %17, %16 ]
  %18 = load ptr, ptr getelementptr inbounds (i8, ptr @_ZN9vmClasses8_klassesE, i64 32), align 8
  %19 = tail call noundef zeroext i1 @_ZNK5Klass14is_subclass_ofEPKS_(ptr noundef nonnull align 8 dereferenceable(196) %.0.i, ptr noundef %18) #19
  br label %20

20:                                               ; preds = %_ZNK7oopDesc5klassEv.exit, %1
  %21 = phi i1 [ false, %1 ], [ %19, %_ZNK7oopDesc5klassEv.exit ]
  ret i1 %21
}